target datalayout = "e-m:e-p270:32:32-p271:32:32-p272:64:64-i64:64-i128:128-f80:128-n8:16:32:64-S128"
target triple = "x86_64-pc-linux-gnu"

%struct.ARKodeSPRKStepMemRec = type { ptr, i32, ptr, ptr, ptr, ptr, i64, i64, i32 }

@__func__.sprkStep_SetOrder = private unnamed_addr constant [18 x i8] c"sprkStep_SetOrder\00", align 1

; Function Attrs: nounwind uwtable
define i32 @sprkStep_SetOrder(ptr noundef %0, i32 noundef %1) #0 {
  %3 = alloca i32, align 4
  %4 = alloca ptr, align 8
  %5 = alloca i32, align 4
  %6 = alloca ptr, align 8
  %7 = alloca i32, align 4
  %8 = alloca i32, align 4
  store ptr %0, ptr %4, align 8, !tbaa !9
  store i32 %1, ptr %5, align 4, !tbaa !7
  call void @llvm.lifetime.start.p0(i64 8, ptr %6) #4
  store ptr null, ptr %6, align 8, !tbaa !11
  call void @llvm.lifetime.start.p0(i64 4, ptr %7) #4
  store i32 0, ptr %7, align 4, !tbaa !7
  %9 = load ptr, ptr %4, align 8, !tbaa !9
  %10 = call i32 @sprkStep_AccessStepMem(ptr noundef %9, ptr noundef @__func__.sprkStep_SetOrder, ptr noundef %6)
  store i32 %10, ptr %7, align 4, !tbaa !7
  %11 = load i32, ptr %7, align 4, !tbaa !7
  %12 = icmp ne i32 %11, 0
  br i1 %12, label %13, label %15

13:                                               ; preds = %2
  %14 = load i32, ptr %7, align 4, !tbaa !7
  store i32 %14, ptr %3, align 4
  store i32 1, ptr %8, align 4
  br label %47

15:                                               ; preds = %2
  %16 = load i32, ptr %5, align 4, !tbaa !7
  %17 = icmp eq i32 %16, 7
  br i1 %17, label %24, label %18

18:                                               ; preds = %15
  %19 = load i32, ptr %5, align 4, !tbaa !7
  %20 = icmp eq i32 %19, 9
  br i1 %20, label %24, label %21

21:                                               ; preds = %18
  %22 = load i32, ptr %5, align 4, !tbaa !7
  %23 = icmp sgt i32 %22, 10
  br i1 %23, label %24, label %25

24:                                               ; preds = %21, %18, %15
  store i32 -1, ptr %5, align 4, !tbaa !7
  br label %25

25:                                               ; preds = %24, %21
  %26 = load i32, ptr %5, align 4, !tbaa !7
  %27 = icmp sle i32 %26, 0
  br i1 %27, label %28, label %31

28:                                               ; preds = %25
  %29 = load ptr, ptr %6, align 8, !tbaa !11
  %30 = getelementptr inbounds nuw %struct.ARKodeSPRKStepMemRec, ptr %29, i32 0, i32 1
  store i32 4, ptr %30, align 8, !tbaa !39
  br label %35

31:                                               ; preds = %25
  %32 = load i32, ptr %5, align 4, !tbaa !7
  %33 = load ptr, ptr %6, align 8, !tbaa !11
  %34 = getelementptr inbounds nuw %struct.ARKodeSPRKStepMemRec, ptr %33, i32 0, i32 1
  store i32 %32, ptr %34, align 8, !tbaa !39
  br label %35

35:                                               ; preds = %31, %28
  %36 = load ptr, ptr %6, align 8, !tbaa !11
  %37 = getelementptr inbounds nuw %struct.ARKodeSPRKStepMemRec, ptr %36, i32 0, i32 0
  %38 = load ptr, ptr %37, align 8, !tbaa !29
  %39 = icmp ne ptr %38, null
  br i1 %39, label %40, label %46

40:                                               ; preds = %35
  %41 = load ptr, ptr %6, align 8, !tbaa !11
  %42 = getelementptr inbounds nuw %struct.ARKodeSPRKStepMemRec, ptr %41, i32 0, i32 0
  %43 = load ptr, ptr %42, align 8, !tbaa !29
  call void @ARKodeSPRKTable_Free(ptr noundef %43)
  %44 = load ptr, ptr %6, align 8, !tbaa !11
  %45 = getelementptr inbounds nuw %struct.ARKodeSPRKStepMemRec, ptr %44, i32 0, i32 0
  store ptr null, ptr %45, align 8, !tbaa !29
  br label %46

46:                                               ; preds = %40, %35
  store i32 0, ptr %3, align 4
  store i32 1, ptr %8, align 4
  br label %47

47:                                               ; preds = %46, %13
  call void @llvm.lifetime.end.p0(i64 4, ptr %7) #4
  call void @llvm.lifetime.end.p0(i64 8, ptr %6) #4
  %48 = load i32, ptr %3, align 4
  ret i32 %48
}