; Function Attrs: nounwind uwtable
define i32 @sprkStep_SetOrder(ptr noundef %0, i32 noundef %1) local_unnamed_addr #0 {
  %3 = alloca ptr, align 8
  call void @llvm.lifetime.start.p0(i64 8, ptr nonnull %3) #5
  store ptr null, ptr %3, align 8, !tbaa !8
  %4 = call i32 @sprkStep_AccessStepMem(ptr noundef %0, ptr noundef nonnull @__func__.sprkStep_SetOrder, ptr noundef nonnull %3) #5
  %.not = icmp eq i32 %4, 0
  br i1 %.not, label %5, label %15

5:                                                ; preds = %2
  %6 = icmp eq i32 %1, 7
  %7 = icmp eq i32 %1, 9
  %or.cond = or i1 %6, %7
  %8 = icmp sgt i32 %1, 10
  %or.cond3 = or i1 %8, %or.cond
  %spec.store.select = select i1 %or.cond3, i32 -1, i32 %1
  %9 = icmp slt i32 %spec.store.select, 1
  %10 = load ptr, ptr %3, align 8, !tbaa !8
  %11 = getelementptr inbounds nuw i8, ptr %10, i64 8
  %.spec.store.select = select i1 %9, i32 4, i32 %spec.store.select
  store i32 %.spec.store.select, ptr %11, align 8, !tbaa !31
  %12 = load ptr, ptr %10, align 8, !tbaa !26
  %.not13 = icmp eq ptr %12, null
  br i1 %.not13, label %15, label %13

13:                                               ; preds = %5
  call void @ARKodeSPRKTable_Free(ptr noundef nonnull %12) #5
  %14 = load ptr, ptr %3, align 8, !tbaa !8
  store ptr null, ptr %14, align 8, !tbaa !26
  br label %15

15:                                               ; preds = %5, %13, %2
  call void @llvm.lifetime.end.p0(i64 8, ptr nonnull %3) #5
  ret i32 %4
}